target datalayout = "e-m:e-p270:32:32-p271:32:32-p272:64:64-i64:64-i128:128-f80:128-n8:16:32:64-S128"
target triple = "x86_64-pc-linux-gnu"

%"class.icu_77::UObject" = type { ptr }
%"class.icu_77::UnicodeString" = type { %"class.icu_77::Replaceable", %"union.icu_77::UnicodeString::StackBufferOrFields" }
%"class.icu_77::Replaceable" = type { %"class.icu_77::UObject" }
%"union.icu_77::UnicodeString::StackBufferOrFields" = type { %struct.anon.0, [32 x i8] }
%struct.anon.0 = type { i16, i32, i32, ptr }
%"class.icu_77::ConstChar16Ptr" = type { ptr }
%"class.icu_77::Char16Ptr" = type { ptr }

; Function Attrs: inlinehint mustprogress nounwind uwtable
define linkonce_odr void @_ZN6icu_779Char16PtrD2Ev(ptr noundef nonnull align 8 dereferenceable(8) %0) unnamed_addr #5 comdat align 2 {
  %2 = alloca ptr, align 8
  store ptr %0, ptr %2, align 8, !tbaa !26
  %3 = load ptr, ptr %2, align 8
  %4 = getelementptr inbounds nuw %"class.icu_77::Char16Ptr", ptr %3, i32 0, i32 0
  %5 = load ptr, ptr %4, align 8, !tbaa !28
  call void asm sideeffect "", "rm,~{memory},~{dirflag},~{fpsr},~{flags}"(ptr %5) #7, !srcloc !30
  ret void
}

; Function Attrs: inlinehint mustprogress nounwind uwtable
define linkonce_odr void @_ZN6icu_779Char16PtrC2EPDs(ptr noundef nonnull align 8 dereferenceable(8) %0, ptr noundef %1) unnamed_addr #5 comdat align 2 {
  %3 = alloca ptr, align 8
  %4 = alloca ptr, align 8
  store ptr %0, ptr %3, align 8, !tbaa !26
  store ptr %1, ptr %4, align 8, !tbaa !15
  %5 = load ptr, ptr %3, align 8
  %6 = getelementptr inbounds nuw %"class.icu_77::Char16Ptr", ptr %5, i32 0, i32 0
  %7 = load ptr, ptr %4, align 8, !tbaa !15
  store ptr %7, ptr %6, align 8, !tbaa !28
  ret void
}

; Function Attrs: inlinehint mustprogress nounwind uwtable
define linkonce_odr void @_ZN6icu_7714ConstChar16PtrD2Ev(ptr noundef nonnull align 8 dereferenceable(8) %0) unnamed_addr #5 comdat align 2 {
  %2 = alloca ptr, align 8
  store ptr %0, ptr %2, align 8, !tbaa !21
  %3 = load ptr, ptr %2, align 8
  %4 = getelementptr inbounds nuw %"class.icu_77::ConstChar16Ptr", ptr %3, i32 0, i32 0
  %5 = load ptr, ptr %4, align 8, !tbaa !23
  call void asm sideeffect "", "rm,~{memory},~{dirflag},~{fpsr},~{flags}"(ptr %5) #7, !srcloc !25
  ret void
}

; Function Attrs: inlinehint mustprogress nounwind uwtable
define linkonce_odr void @_ZN6icu_7714ConstChar16PtrC2EPKDs(ptr noundef nonnull align 8 dereferenceable(8) %0, ptr noundef %1) unnamed_addr #5 comdat align 2 {
  %3 = alloca ptr, align 8
  %4 = alloca ptr, align 8
  store ptr %0, ptr %3, align 8, !tbaa !21
  store ptr %1, ptr %4, align 8, !tbaa !15
  %5 = load ptr, ptr %3, align 8
  %6 = getelementptr inbounds nuw %"class.icu_77::ConstChar16Ptr", ptr %5, i32 0, i32 0
  %7 = load ptr, ptr %4, align 8, !tbaa !15
  store ptr %7, ptr %6, align 8, !tbaa !23
  ret void
}

; Function Attrs: inlinehint mustprogress nounwind uwtable
define internal noundef signext i8 @_ZL9U_FAILURE10UErrorCode(i32 noundef %0) #5 {
  %2 = alloca i32, align 4
  store i32 %0, ptr %2, align 4, !tbaa !13
  %3 = load i32, ptr %2, align 4, !tbaa !13
  %4 = icmp sgt i32 %3, 0
  %5 = zext i1 %4 to i8
  ret i8 %5
}

; Function Attrs: mustprogress uwtable
define i32 @udatpg_getSkeleton_77(ptr noundef %0, ptr noundef %1, i32 noundef %2, ptr noundef %3, i32 noundef %4, ptr noundef %5) #0 personality ptr @__gxx_personality_v0 {
  %7 = alloca i32, align 4
  %8 = alloca ptr, align 8
  %9 = alloca ptr, align 8
  %10 = alloca i32, align 4
  %11 = alloca ptr, align 8
  %12 = alloca i32, align 4
  %13 = alloca ptr, align 8
  %14 = alloca %"class.icu_77::UnicodeString", align 8
  %15 = alloca %"class.icu_77::ConstChar16Ptr", align 8
  %16 = alloca ptr, align 8
  %17 = alloca i32, align 4
  %18 = alloca %"class.icu_77::UnicodeString", align 8
  %19 = alloca %"class.icu_77::Char16Ptr", align 8
  store ptr %0, ptr %8, align 8, !tbaa !9
  store ptr %1, ptr %9, align 8, !tbaa !15
  store i32 %2, ptr %10, align 4, !tbaa !17
  store ptr %3, ptr %11, align 8, !tbaa !15
  store i32 %4, ptr %12, align 4, !tbaa !17
  store ptr %5, ptr %13, align 8, !tbaa !8
  %20 = load ptr, ptr %13, align 8, !tbaa !8
  %21 = load i32, ptr %20, align 4, !tbaa !13
  %22 = call noundef signext i8 @_ZL9U_FAILURE10UErrorCode(i32 noundef %21)
  %23 = icmp ne i8 %22, 0
  br i1 %23, label %24, label %25

24:                                               ; preds = %6
  store i32 0, ptr %7, align 4
  br label %67

25:                                               ; preds = %6
  %26 = load ptr, ptr %9, align 8, !tbaa !15
  %27 = icmp eq ptr %26, null
  br i1 %27, label %28, label %33

28:                                               ; preds = %25
  %29 = load i32, ptr %10, align 4, !tbaa !17
  %30 = icmp ne i32 %29, 0
  br i1 %30, label %31, label %33

31:                                               ; preds = %28
  %32 = load ptr, ptr %13, align 8, !tbaa !8
  store i32 1, ptr %32, align 4, !tbaa !13
  store i32 0, ptr %7, align 4
  br label %67

33:                                               ; preds = %28, %25
  call void @llvm.lifetime.start.p0(i64 64, ptr %14) #7
  %34 = load i32, ptr %10, align 4, !tbaa !17
  %35 = icmp slt i32 %34, 0
  %36 = zext i1 %35 to i8
  %37 = load ptr, ptr %9, align 8, !tbaa !15
  call void @_ZN6icu_7714ConstChar16PtrC2EPKDs(ptr noundef nonnull align 8 dereferenceable(8) %15, ptr noundef %37)
  %38 = load i32, ptr %10, align 4, !tbaa !17
  invoke void @_ZN6icu_7713UnicodeStringC1EaNS_14ConstChar16PtrEi(ptr noundef nonnull align 8 dereferenceable(64) %14, i8 noundef signext %36, ptr noundef %15, i32 noundef %38)
          to label %39 unwind label %48

39:                                               ; preds = %33
  call void @_ZN6icu_7714ConstChar16PtrD2Ev(ptr noundef nonnull align 8 dereferenceable(8) %15) #7
  call void @llvm.lifetime.start.p0(i64 64, ptr %18) #7
  %40 = load ptr, ptr %13, align 8, !tbaa !8
  invoke void @_ZN6icu_7724DateTimePatternGenerator17staticGetSkeletonERKNS_13UnicodeStringER10UErrorCode(ptr dead_on_unwind writable sret(%"class.icu_77::UnicodeString") align 8 %18, ptr noundef nonnull align 8 dereferenceable(64) %14, ptr noundef nonnull align 4 dereferenceable(4) %40)
          to label %41 unwind label %52

41:                                               ; preds = %39
  %42 = load ptr, ptr %11, align 8, !tbaa !15
  invoke void @_ZN6icu_779Char16PtrC2EPDs(ptr noundef nonnull align 8 dereferenceable(8) %19, ptr noundef %42)
          to label %43 unwind label %56

43:                                               ; preds = %41
  %44 = load i32, ptr %12, align 4, !tbaa !17
  %45 = load ptr, ptr %13, align 8, !tbaa !8
  %46 = invoke noundef i32 @_ZNK6icu_7713UnicodeString7extractENS_9Char16PtrEiR10UErrorCode(ptr noundef nonnull align 8 dereferenceable(64) %18, ptr noundef %19, i32 noundef %44, ptr noundef nonnull align 4 dereferenceable(4) %45)
          to label %47 unwind label %60

47:                                               ; preds = %43
  store i32 %46, ptr %7, align 4
  call void @_ZN6icu_779Char16PtrD2Ev(ptr noundef nonnull align 8 dereferenceable(8) %19) #7
  call void @_ZN6icu_7713UnicodeStringD1Ev(ptr noundef nonnull align 8 dereferenceable(64) %18) #7
  call void @llvm.lifetime.end.p0(i64 64, ptr %18) #7
  call void @_ZN6icu_7713UnicodeStringD1Ev(ptr noundef nonnull align 8 dereferenceable(64) %14) #7
  call void @llvm.lifetime.end.p0(i64 64, ptr %14) #7
  br label %67

48:                                               ; preds = %33
  %49 = landingpad { ptr, i32 }
          cleanup
  %50 = extractvalue { ptr, i32 } %49, 0
  store ptr %50, ptr %16, align 8
  %51 = extractvalue { ptr, i32 } %49, 1
  store i32 %51, ptr %17, align 4
  call void @_ZN6icu_7714ConstChar16PtrD2Ev(ptr noundef nonnull align 8 dereferenceable(8) %15) #7
  br label %66

52:                                               ; preds = %39
  %53 = landingpad { ptr, i32 }
          cleanup
  %54 = extractvalue { ptr, i32 } %53, 0
  store ptr %54, ptr %16, align 8
  %55 = extractvalue { ptr, i32 } %53, 1
  store i32 %55, ptr %17, align 4
  br label %65

56:                                               ; preds = %41
  %57 = landingpad { ptr, i32 }
          cleanup
  %58 = extractvalue { ptr, i32 } %57, 0
  store ptr %58, ptr %16, align 8
  %59 = extractvalue { ptr, i32 } %57, 1
  store i32 %59, ptr %17, align 4
  br label %64

60:                                               ; preds = %43
  %61 = landingpad { ptr, i32 }
          cleanup
  %62 = extractvalue { ptr, i32 } %61, 0
  store ptr %62, ptr %16, align 8
  %63 = extractvalue { ptr, i32 } %61, 1
  store i32 %63, ptr %17, align 4
  call void @_ZN6icu_779Char16PtrD2Ev(ptr noundef nonnull align 8 dereferenceable(8) %19) #7
  br label %64

64:                                               ; preds = %60, %56
  call void @_ZN6icu_7713UnicodeStringD1Ev(ptr noundef nonnull align 8 dereferenceable(64) %18) #7
  br label %65

65:                                               ; preds = %64, %52
  call void @llvm.lifetime.end.p0(i64 64, ptr %18) #7
  call void @_ZN6icu_7713UnicodeStringD1Ev(ptr noundef nonnull align 8 dereferenceable(64) %14) #7
  br label %66

66:                                               ; preds = %65, %48
  call void @llvm.lifetime.end.p0(i64 64, ptr %14) #7
  br label %69

67:                                               ; preds = %47, %31, %24
  %68 = load i32, ptr %7, align 4
  ret i32 %68

69:                                               ; preds = %66
  %70 = load ptr, ptr %16, align 8
  %71 = load i32, ptr %17, align 4
  %72 = insertvalue { ptr, i32 } poison, ptr %70, 0
  %73 = insertvalue { ptr, i32 } %72, i32 %71, 1
  resume { ptr, i32 } %73
}